; Function Attrs: mustprogress uwtable
define hidden noundef zeroext i1 @_ZN4cvc58internal4prop11TheoryProxy20isDecisionEngineDoneEv(ptr noundef nonnull readonly align 8 captures(none) dereferenceable(521) %0) local_unnamed_addr #4 align 2 {
  %2 = getelementptr inbounds nuw i8, ptr %0, i64 40
  %3 = load ptr, ptr %2, align 8, !tbaa !339
  %4 = load ptr, ptr %3, align 8, !tbaa !3
  %5 = getelementptr inbounds nuw i8, ptr %4, i64 24
  %6 = load ptr, ptr %5, align 8
  %7 = tail call noundef zeroext i1 %6(ptr noundef nonnull align 8 dereferenceable(32) %3)
  %8 = getelementptr inbounds nuw i8, ptr %0, i64 512
  %9 = load i8, ptr %8, align 8, !range !305
  %10 = trunc nuw i8 %9 to i1
  %11 = select i1 %7, i1 true, i1 %10
  ret i1 %11
}